; Function Attrs: mustprogress uwtable
define noundef i32 @_ZN3gmx18ColvarProxyGromacs13check_atom_idEi(ptr nocapture noundef nonnull readonly align 8 dereferenceable(1728) %0, i32 noundef %1) unnamed_addr #1 align 2 personality ptr @__gxx_personality_v0 {
  %3 = alloca i32, align 4
  %4 = alloca %"class.std::__cxx11::basic_string", align 8
  %5 = alloca %"class.std::__cxx11::basic_string", align 8
  %6 = alloca %"class.std::__cxx11::basic_string", align 8
  store i32 %1, ptr %3, align 4
  %7 = add nsw i32 %1, -1
  %8 = icmp slt i32 %1, 1
  %9 = getelementptr inbounds i8, ptr %0, i64 1168
  %10 = load i32, ptr %9, align 8
  %.not.not = icmp slt i32 %10, %1
  %or.cond = select i1 %8, i1 true, i1 %.not.not
  br i1 %or.cond, label %11, label %25

11:                                               ; preds = %2
  call void @_ZN12colvarmodule6to_strB5cxx11ERKimm(ptr dead_on_unwind nonnull writable sret(%"class.std::__cxx11::basic_string") align 8 %6, ptr noundef nonnull align 4 dereferenceable(4) %3, i64 noundef 0, i64 noundef 0)
  %12 = invoke noundef nonnull align 8 dereferenceable(32) ptr @_ZNSt7__cxx1112basic_stringIcSt11char_traitsIcESaIcEE6insertEmPKc(ptr noundef nonnull align 8 dereferenceable(32) %6, i64 noundef 0, ptr noundef nonnull @.str.20)
          to label %13 unwind label %18

13:                                               ; preds = %11
  call void @_ZNSt7__cxx1112basic_stringIcSt11char_traitsIcESaIcEEC1EOS4_(ptr noundef nonnull align 8 dereferenceable(32) %5, ptr noundef nonnull align 8 dereferenceable(32) %12) #19
  %14 = invoke noundef nonnull align 8 dereferenceable(32) ptr @_ZNSt7__cxx1112basic_stringIcSt11char_traitsIcESaIcEE6appendEPKc(ptr noundef nonnull align 8 dereferenceable(32) %5, ptr noundef nonnull @.str.7)
          to label %15 unwind label %20

15:                                               ; preds = %13
  call void @_ZNSt7__cxx1112basic_stringIcSt11char_traitsIcESaIcEEC1EOS4_(ptr noundef nonnull align 8 dereferenceable(32) %4, ptr noundef nonnull align 8 dereferenceable(32) %14) #19
  %16 = invoke noundef i32 @_ZN12colvarmodule5errorERKNSt7__cxx1112basic_stringIcSt11char_traitsIcESaIcEEEi(ptr noundef nonnull align 8 dereferenceable(32) %4, i32 noundef 4)
          to label %17 unwind label %22

17:                                               ; preds = %15
  call void @_ZNSt7__cxx1112basic_stringIcSt11char_traitsIcESaIcEED1Ev(ptr noundef nonnull align 8 dereferenceable(32) %4) #19
  call void @_ZNSt7__cxx1112basic_stringIcSt11char_traitsIcESaIcEED1Ev(ptr noundef nonnull align 8 dereferenceable(32) %5) #19
  call void @_ZNSt7__cxx1112basic_stringIcSt11char_traitsIcESaIcEED1Ev(ptr noundef nonnull align 8 dereferenceable(32) %6) #19
  br label %25

18:                                               ; preds = %11
  %19 = landingpad { ptr, i32 }
          cleanup
  br label %26

20:                                               ; preds = %13
  %21 = landingpad { ptr, i32 }
          cleanup
  br label %24

22:                                               ; preds = %15
  %23 = landingpad { ptr, i32 }
          cleanup
  call void @_ZNSt7__cxx1112basic_stringIcSt11char_traitsIcESaIcEED1Ev(ptr noundef nonnull align 8 dereferenceable(32) %4) #19
  br label %24

24:                                               ; preds = %22, %20
  %.pn15 = phi { ptr, i32 } [ %23, %22 ], [ %21, %20 ]
  call void @_ZNSt7__cxx1112basic_stringIcSt11char_traitsIcESaIcEED1Ev(ptr noundef nonnull align 8 dereferenceable(32) %5) #19
  br label %26

25:                                               ; preds = %2, %17
  %.011 = phi i32 [ 4, %17 ], [ %7, %2 ]
  ret i32 %.011

26:                                               ; preds = %18, %24
  %.pn15.pn = phi { ptr, i32 } [ %.pn15, %24 ], [ %19, %18 ]
  call void @_ZNSt7__cxx1112basic_stringIcSt11char_traitsIcESaIcEED1Ev(ptr noundef nonnull align 8 dereferenceable(32) %6) #19
  resume { ptr, i32 } %.pn15.pn
}